target datalayout = "e-m:e-p270:32:32-p271:32:32-p272:64:64-i64:64-i128:128-f80:128-n8:16:32:64-S128"
target triple = "x86_64-pc-linux-gnu"

%struct.u128 = type { i64, i64 }

; Function Attrs: nounwind uwtable
define internal void @gcm_init_4bit(ptr noundef %0, ptr noundef %1) #0 {
  %3 = alloca ptr, align 8
  %4 = alloca ptr, align 8
  %5 = alloca %struct.u128, align 8
  %6 = alloca i64, align 8
  %7 = alloca i64, align 8
  %8 = alloca i64, align 8
  store ptr %0, ptr %3, align 8, !tbaa !3
  store ptr %1, ptr %4, align 8, !tbaa !7
  call void @llvm.lifetime.start.p0(i64 16, ptr %5) #5
  %9 = load ptr, ptr %3, align 8, !tbaa !3
  %10 = getelementptr inbounds %struct.u128, ptr %9, i64 0
  %11 = getelementptr inbounds nuw %struct.u128, ptr %10, i32 0, i32 0
  store i64 0, ptr %11, align 8, !tbaa !90
  %12 = load ptr, ptr %3, align 8, !tbaa !3
  %13 = getelementptr inbounds %struct.u128, ptr %12, i64 0
  %14 = getelementptr inbounds nuw %struct.u128, ptr %13, i32 0, i32 1
  store i64 0, ptr %14, align 8, !tbaa !92
  %15 = load ptr, ptr %4, align 8, !tbaa !7
  %16 = getelementptr inbounds i64, ptr %15, i64 0
  %17 = load i64, ptr %16, align 8, !tbaa !21
  %18 = getelementptr inbounds nuw %struct.u128, ptr %5, i32 0, i32 0
  store i64 %17, ptr %18, align 8, !tbaa !90
  %19 = load ptr, ptr %4, align 8, !tbaa !7
  %20 = getelementptr inbounds i64, ptr %19, i64 1
  %21 = load i64, ptr %20, align 8, !tbaa !21
  %22 = getelementptr inbounds nuw %struct.u128, ptr %5, i32 0, i32 1
  store i64 %21, ptr %22, align 8, !tbaa !92
  %23 = load ptr, ptr %3, align 8, !tbaa !3
  %24 = getelementptr inbounds %struct.u128, ptr %23, i64 8
  call void @llvm.memcpy.p0.p0.i64(ptr align 8 %24, ptr align 8 %5, i64 16, i1 false), !tbaa.struct !93
  br label %25

25:                                               ; preds = %2
  call void @llvm.lifetime.start.p0(i64 8, ptr %6) #5
  %26 = getelementptr inbounds nuw %struct.u128, ptr %5, i32 0, i32 1
  %27 = load i64, ptr %26, align 8, !tbaa !92
  %28 = and i64 %27, 1
  %29 = sub i64 0, %28
  %30 = and i64 -2233785415175766016, %29
  store i64 %30, ptr %6, align 8, !tbaa !21
  %31 = getelementptr inbounds nuw %struct.u128, ptr %5, i32 0, i32 0
  %32 = load i64, ptr %31, align 8, !tbaa !90
  %33 = shl i64 %32, 63
  %34 = getelementptr inbounds nuw %struct.u128, ptr %5, i32 0, i32 1
  %35 = load i64, ptr %34, align 8, !tbaa !92
  %36 = lshr i64 %35, 1
  %37 = or i64 %33, %36
  %38 = getelementptr inbounds nuw %struct.u128, ptr %5, i32 0, i32 1
  store i64 %37, ptr %38, align 8, !tbaa !92
  %39 = getelementptr inbounds nuw %struct.u128, ptr %5, i32 0, i32 0
  %40 = load i64, ptr %39, align 8, !tbaa !90
  %41 = lshr i64 %40, 1
  %42 = load i64, ptr %6, align 8, !tbaa !21
  %43 = xor i64 %41, %42
  %44 = getelementptr inbounds nuw %struct.u128, ptr %5, i32 0, i32 0
  store i64 %43, ptr %44, align 8, !tbaa !90
  call void @llvm.lifetime.end.p0(i64 8, ptr %6) #5
  br label %45

45:                                               ; preds = %25
  br label %46

46:                                               ; preds = %45
  %47 = load ptr, ptr %3, align 8, !tbaa !3
  %48 = getelementptr inbounds %struct.u128, ptr %47, i64 4
  call void @llvm.memcpy.p0.p0.i64(ptr align 8 %48, ptr align 8 %5, i64 16, i1 false), !tbaa.struct !93
  br label %49

49:                                               ; preds = %46
  call void @llvm.lifetime.start.p0(i64 8, ptr %7) #5
  %50 = getelementptr inbounds nuw %struct.u128, ptr %5, i32 0, i32 1
  %51 = load i64, ptr %50, align 8, !tbaa !92
  %52 = and i64 %51, 1
  %53 = sub i64 0, %52
  %54 = and i64 -2233785415175766016, %53
  store i64 %54, ptr %7, align 8, !tbaa !21
  %55 = getelementptr inbounds nuw %struct.u128, ptr %5, i32 0, i32 0
  %56 = load i64, ptr %55, align 8, !tbaa !90
  %57 = shl i64 %56, 63
  %58 = getelementptr inbounds nuw %struct.u128, ptr %5, i32 0, i32 1
  %59 = load i64, ptr %58, align 8, !tbaa !92
  %60 = lshr i64 %59, 1
  %61 = or i64 %57, %60
  %62 = getelementptr inbounds nuw %struct.u128, ptr %5, i32 0, i32 1
  store i64 %61, ptr %62, align 8, !tbaa !92
  %63 = getelementptr inbounds nuw %struct.u128, ptr %5, i32 0, i32 0
  %64 = load i64, ptr %63, align 8, !tbaa !90
  %65 = lshr i64 %64, 1
  %66 = load i64, ptr %7, align 8, !tbaa !21
  %67 = xor i64 %65, %66
  %68 = getelementptr inbounds nuw %struct.u128, ptr %5, i32 0, i32 0
  store i64 %67, ptr %68, align 8, !tbaa !90
  call void @llvm.lifetime.end.p0(i64 8, ptr %7) #5
  br label %69

69:                                               ; preds = %49
  br label %70

70:                                               ; preds = %69
  %71 = load ptr, ptr %3, align 8, !tbaa !3
  %72 = getelementptr inbounds %struct.u128, ptr %71, i64 2
  call void @llvm.memcpy.p0.p0.i64(ptr align 8 %72, ptr align 8 %5, i64 16, i1 false), !tbaa.struct !93
  br label %73

73:                                               ; preds = %70
  call void @llvm.lifetime.start.p0(i64 8, ptr %8) #5
  %74 = getelementptr inbounds nuw %struct.u128, ptr %5, i32 0, i32 1
  %75 = load i64, ptr %74, align 8, !tbaa !92
  %76 = and i64 %75, 1
  %77 = sub i64 0, %76
  %78 = and i64 -2233785415175766016, %77
  store i64 %78, ptr %8, align 8, !tbaa !21
  %79 = getelementptr inbounds nuw %struct.u128, ptr %5, i32 0, i32 0
  %80 = load i64, ptr %79, align 8, !tbaa !90
  %81 = shl i64 %80, 63
  %82 = getelementptr inbounds nuw %struct.u128, ptr %5, i32 0, i32 1
  %83 = load i64, ptr %82, align 8, !tbaa !92
  %84 = lshr i64 %83, 1
  %85 = or i64 %81, %84
  %86 = getelementptr inbounds nuw %struct.u128, ptr %5, i32 0, i32 1
  store i64 %85, ptr %86, align 8, !tbaa !92
  %87 = getelementptr inbounds nuw %struct.u128, ptr %5, i32 0, i32 0
  %88 = load i64, ptr %87, align 8, !tbaa !90
  %89 = lshr i64 %88, 1
  %90 = load i64, ptr %8, align 8, !tbaa !21
  %91 = xor i64 %89, %90
  %92 = getelementptr inbounds nuw %struct.u128, ptr %5, i32 0, i32 0
  store i64 %91, ptr %92, align 8, !tbaa !90
  call void @llvm.lifetime.end.p0(i64 8, ptr %8) #5
  br label %93

93:                                               ; preds = %73
  br label %94

94:                                               ; preds = %93
  %95 = load ptr, ptr %3, align 8, !tbaa !3
  %96 = getelementptr inbounds %struct.u128, ptr %95, i64 1
  call void @llvm.memcpy.p0.p0.i64(ptr align 8 %96, ptr align 8 %5, i64 16, i1 false), !tbaa.struct !93
  %97 = getelementptr inbounds nuw %struct.u128, ptr %5, i32 0, i32 0
  %98 = load i64, ptr %97, align 8, !tbaa !90
  %99 = load ptr, ptr %3, align 8, !tbaa !3
  %100 = getelementptr inbounds %struct.u128, ptr %99, i64 2
  %101 = getelementptr inbounds nuw %struct.u128, ptr %100, i32 0, i32 0
  %102 = load i64, ptr %101, align 8, !tbaa !90
  %103 = xor i64 %98, %102
  %104 = load ptr, ptr %3, align 8, !tbaa !3
  %105 = getelementptr inbounds %struct.u128, ptr %104, i64 3
  %106 = getelementptr inbounds nuw %struct.u128, ptr %105, i32 0, i32 0
  store i64 %103, ptr %106, align 8, !tbaa !90
  %107 = getelementptr inbounds nuw %struct.u128, ptr %5, i32 0, i32 1
  %108 = load i64, ptr %107, align 8, !tbaa !92
  %109 = load ptr, ptr %3, align 8, !tbaa !3
  %110 = getelementptr inbounds %struct.u128, ptr %109, i64 2
  %111 = getelementptr inbounds nuw %struct.u128, ptr %110, i32 0, i32 1
  %112 = load i64, ptr %111, align 8, !tbaa !92
  %113 = xor i64 %108, %112
  %114 = load ptr, ptr %3, align 8, !tbaa !3
  %115 = getelementptr inbounds %struct.u128, ptr %114, i64 3
  %116 = getelementptr inbounds nuw %struct.u128, ptr %115, i32 0, i32 1
  store i64 %113, ptr %116, align 8, !tbaa !92
  %117 = load ptr, ptr %3, align 8, !tbaa !3
  %118 = getelementptr inbounds %struct.u128, ptr %117, i64 4
  call void @llvm.memcpy.p0.p0.i64(ptr align 8 %5, ptr align 8 %118, i64 16, i1 false), !tbaa.struct !93
  %119 = getelementptr inbounds nuw %struct.u128, ptr %5, i32 0, i32 0
  %120 = load i64, ptr %119, align 8, !tbaa !90
  %121 = load ptr, ptr %3, align 8, !tbaa !3
  %122 = getelementptr inbounds %struct.u128, ptr %121, i64 1
  %123 = getelementptr inbounds nuw %struct.u128, ptr %122, i32 0, i32 0
  %124 = load i64, ptr %123, align 8, !tbaa !90
  %125 = xor i64 %120, %124
  %126 = load ptr, ptr %3, align 8, !tbaa !3
  %127 = getelementptr inbounds %struct.u128, ptr %126, i64 5
  %128 = getelementptr inbounds nuw %struct.u128, ptr %127, i32 0, i32 0
  store i64 %125, ptr %128, align 8, !tbaa !90
  %129 = getelementptr inbounds nuw %struct.u128, ptr %5, i32 0, i32 1
  %130 = load i64, ptr %129, align 8, !tbaa !92
  %131 = load ptr, ptr %3, align 8, !tbaa !3
  %132 = getelementptr inbounds %struct.u128, ptr %131, i64 1
  %133 = getelementptr inbounds nuw %struct.u128, ptr %132, i32 0, i32 1
  %134 = load i64, ptr %133, align 8, !tbaa !92
  %135 = xor i64 %130, %134
  %136 = load ptr, ptr %3, align 8, !tbaa !3
  %137 = getelementptr inbounds %struct.u128, ptr %136, i64 5
  %138 = getelementptr inbounds nuw %struct.u128, ptr %137, i32 0, i32 1
  store i64 %135, ptr %138, align 8, !tbaa !92
  %139 = getelementptr inbounds nuw %struct.u128, ptr %5, i32 0, i32 0
  %140 = load i64, ptr %139, align 8, !tbaa !90
  %141 = load ptr, ptr %3, align 8, !tbaa !3
  %142 = getelementptr inbounds %struct.u128, ptr %141, i64 2
  %143 = getelementptr inbounds nuw %struct.u128, ptr %142, i32 0, i32 0
  %144 = load i64, ptr %143, align 8, !tbaa !90
  %145 = xor i64 %140, %144
  %146 = load ptr, ptr %3, align 8, !tbaa !3
  %147 = getelementptr inbounds %struct.u128, ptr %146, i64 6
  %148 = getelementptr inbounds nuw %struct.u128, ptr %147, i32 0, i32 0
  store i64 %145, ptr %148, align 8, !tbaa !90
  %149 = getelementptr inbounds nuw %struct.u128, ptr %5, i32 0, i32 1
  %150 = load i64, ptr %149, align 8, !tbaa !92
  %151 = load ptr, ptr %3, align 8, !tbaa !3
  %152 = getelementptr inbounds %struct.u128, ptr %151, i64 2
  %153 = getelementptr inbounds nuw %struct.u128, ptr %152, i32 0, i32 1
  %154 = load i64, ptr %153, align 8, !tbaa !92
  %155 = xor i64 %150, %154
  %156 = load ptr, ptr %3, align 8, !tbaa !3
  %157 = getelementptr inbounds %struct.u128, ptr %156, i64 6
  %158 = getelementptr inbounds nuw %struct.u128, ptr %157, i32 0, i32 1
  store i64 %155, ptr %158, align 8, !tbaa !92
  %159 = getelementptr inbounds nuw %struct.u128, ptr %5, i32 0, i32 0
  %160 = load i64, ptr %159, align 8, !tbaa !90
  %161 = load ptr, ptr %3, align 8, !tbaa !3
  %162 = getelementptr inbounds %struct.u128, ptr %161, i64 3
  %163 = getelementptr inbounds nuw %struct.u128, ptr %162, i32 0, i32 0
  %164 = load i64, ptr %163, align 8, !tbaa !90
  %165 = xor i64 %160, %164
  %166 = load ptr, ptr %3, align 8, !tbaa !3
  %167 = getelementptr inbounds %struct.u128, ptr %166, i64 7
  %168 = getelementptr inbounds nuw %struct.u128, ptr %167, i32 0, i32 0
  store i64 %165, ptr %168, align 8, !tbaa !90
  %169 = getelementptr inbounds nuw %struct.u128, ptr %5, i32 0, i32 1
  %170 = load i64, ptr %169, align 8, !tbaa !92
  %171 = load ptr, ptr %3, align 8, !tbaa !3
  %172 = getelementptr inbounds %struct.u128, ptr %171, i64 3
  %173 = getelementptr inbounds nuw %struct.u128, ptr %172, i32 0, i32 1
  %174 = load i64, ptr %173, align 8, !tbaa !92
  %175 = xor i64 %170, %174
  %176 = load ptr, ptr %3, align 8, !tbaa !3
  %177 = getelementptr inbounds %struct.u128, ptr %176, i64 7
  %178 = getelementptr inbounds nuw %struct.u128, ptr %177, i32 0, i32 1
  store i64 %175, ptr %178, align 8, !tbaa !92
  %179 = load ptr, ptr %3, align 8, !tbaa !3
  %180 = getelementptr inbounds %struct.u128, ptr %179, i64 8
  call void @llvm.memcpy.p0.p0.i64(ptr align 8 %5, ptr align 8 %180, i64 16, i1 false), !tbaa.struct !93
  %181 = getelementptr inbounds nuw %struct.u128, ptr %5, i32 0, i32 0
  %182 = load i64, ptr %181, align 8, !tbaa !90
  %183 = load ptr, ptr %3, align 8, !tbaa !3
  %184 = getelementptr inbounds %struct.u128, ptr %183, i64 1
  %185 = getelementptr inbounds nuw %struct.u128, ptr %184, i32 0, i32 0
  %186 = load i64, ptr %185, align 8, !tbaa !90
  %187 = xor i64 %182, %186
  %188 = load ptr, ptr %3, align 8, !tbaa !3
  %189 = getelementptr inbounds %struct.u128, ptr %188, i64 9
  %190 = getelementptr inbounds nuw %struct.u128, ptr %189, i32 0, i32 0
  store i64 %187, ptr %190, align 8, !tbaa !90
  %191 = getelementptr inbounds nuw %struct.u128, ptr %5, i32 0, i32 1
  %192 = load i64, ptr %191, align 8, !tbaa !92
  %193 = load ptr, ptr %3, align 8, !tbaa !3
  %194 = getelementptr inbounds %struct.u128, ptr %193, i64 1
  %195 = getelementptr inbounds nuw %struct.u128, ptr %194, i32 0, i32 1
  %196 = load i64, ptr %195, align 8, !tbaa !92
  %197 = xor i64 %192, %196
  %198 = load ptr, ptr %3, align 8, !tbaa !3
  %199 = getelementptr inbounds %struct.u128, ptr %198, i64 9
  %200 = getelementptr inbounds nuw %struct.u128, ptr %199, i32 0, i32 1
  store i64 %197, ptr %200, align 8, !tbaa !92
  %201 = getelementptr inbounds nuw %struct.u128, ptr %5, i32 0, i32 0
  %202 = load i64, ptr %201, align 8, !tbaa !90
  %203 = load ptr, ptr %3, align 8, !tbaa !3
  %204 = getelementptr inbounds %struct.u128, ptr %203, i64 2
  %205 = getelementptr inbounds nuw %struct.u128, ptr %204, i32 0, i32 0
  %206 = load i64, ptr %205, align 8, !tbaa !90
  %207 = xor i64 %202, %206
  %208 = load ptr, ptr %3, align 8, !tbaa !3
  %209 = getelementptr inbounds %struct.u128, ptr %208, i64 10
  %210 = getelementptr inbounds nuw %struct.u128, ptr %209, i32 0, i32 0
  store i64 %207, ptr %210, align 8, !tbaa !90
  %211 = getelementptr inbounds nuw %struct.u128, ptr %5, i32 0, i32 1
  %212 = load i64, ptr %211, align 8, !tbaa !92
  %213 = load ptr, ptr %3, align 8, !tbaa !3
  %214 = getelementptr inbounds %struct.u128, ptr %213, i64 2
  %215 = getelementptr inbounds nuw %struct.u128, ptr %214, i32 0, i32 1
  %216 = load i64, ptr %215, align 8, !tbaa !92
  %217 = xor i64 %212, %216
  %218 = load ptr, ptr %3, align 8, !tbaa !3
  %219 = getelementptr inbounds %struct.u128, ptr %218, i64 10
  %220 = getelementptr inbounds nuw %struct.u128, ptr %219, i32 0, i32 1
  store i64 %217, ptr %220, align 8, !tbaa !92
  %221 = getelementptr inbounds nuw %struct.u128, ptr %5, i32 0, i32 0
  %222 = load i64, ptr %221, align 8, !tbaa !90
  %223 = load ptr, ptr %3, align 8, !tbaa !3
  %224 = getelementptr inbounds %struct.u128, ptr %223, i64 3
  %225 = getelementptr inbounds nuw %struct.u128, ptr %224, i32 0, i32 0
  %226 = load i64, ptr %225, align 8, !tbaa !90
  %227 = xor i64 %222, %226
  %228 = load ptr, ptr %3, align 8, !tbaa !3
  %229 = getelementptr inbounds %struct.u128, ptr %228, i64 11
  %230 = getelementptr inbounds nuw %struct.u128, ptr %229, i32 0, i32 0
  store i64 %227, ptr %230, align 8, !tbaa !90
  %231 = getelementptr inbounds nuw %struct.u128, ptr %5, i32 0, i32 1
  %232 = load i64, ptr %231, align 8, !tbaa !92
  %233 = load ptr, ptr %3, align 8, !tbaa !3
  %234 = getelementptr inbounds %struct.u128, ptr %233, i64 3
  %235 = getelementptr inbounds nuw %struct.u128, ptr %234, i32 0, i32 1
  %236 = load i64, ptr %235, align 8, !tbaa !92
  %237 = xor i64 %232, %236
  %238 = load ptr, ptr %3, align 8, !tbaa !3
  %239 = getelementptr inbounds %struct.u128, ptr %238, i64 11
  %240 = getelementptr inbounds nuw %struct.u128, ptr %239, i32 0, i32 1
  store i64 %237, ptr %240, align 8, !tbaa !92
  %241 = getelementptr inbounds nuw %struct.u128, ptr %5, i32 0, i32 0
  %242 = load i64, ptr %241, align 8, !tbaa !90
  %243 = load ptr, ptr %3, align 8, !tbaa !3
  %244 = getelementptr inbounds %struct.u128, ptr %243, i64 4
  %245 = getelementptr inbounds nuw %struct.u128, ptr %244, i32 0, i32 0
  %246 = load i64, ptr %245, align 8, !tbaa !90
  %247 = xor i64 %242, %246
  %248 = load ptr, ptr %3, align 8, !tbaa !3
  %249 = getelementptr inbounds %struct.u128, ptr %248, i64 12
  %250 = getelementptr inbounds nuw %struct.u128, ptr %249, i32 0, i32 0
  store i64 %247, ptr %250, align 8, !tbaa !90
  %251 = getelementptr inbounds nuw %struct.u128, ptr %5, i32 0, i32 1
  %252 = load i64, ptr %251, align 8, !tbaa !92
  %253 = load ptr, ptr %3, align 8, !tbaa !3
  %254 = getelementptr inbounds %struct.u128, ptr %253, i64 4
  %255 = getelementptr inbounds nuw %struct.u128, ptr %254, i32 0, i32 1
  %256 = load i64, ptr %255, align 8, !tbaa !92
  %257 = xor i64 %252, %256
  %258 = load ptr, ptr %3, align 8, !tbaa !3
  %259 = getelementptr inbounds %struct.u128, ptr %258, i64 12
  %260 = getelementptr inbounds nuw %struct.u128, ptr %259, i32 0, i32 1
  store i64 %257, ptr %260, align 8, !tbaa !92
  %261 = getelementptr inbounds nuw %struct.u128, ptr %5, i32 0, i32 0
  %262 = load i64, ptr %261, align 8, !tbaa !90
  %263 = load ptr, ptr %3, align 8, !tbaa !3
  %264 = getelementptr inbounds %struct.u128, ptr %263, i64 5
  %265 = getelementptr inbounds nuw %struct.u128, ptr %264, i32 0, i32 0
  %266 = load i64, ptr %265, align 8, !tbaa !90
  %267 = xor i64 %262, %266
  %268 = load ptr, ptr %3, align 8, !tbaa !3
  %269 = getelementptr inbounds %struct.u128, ptr %268, i64 13
  %270 = getelementptr inbounds nuw %struct.u128, ptr %269, i32 0, i32 0
  store i64 %267, ptr %270, align 8, !tbaa !90
  %271 = getelementptr inbounds nuw %struct.u128, ptr %5, i32 0, i32 1
  %272 = load i64, ptr %271, align 8, !tbaa !92
  %273 = load ptr, ptr %3, align 8, !tbaa !3
  %274 = getelementptr inbounds %struct.u128, ptr %273, i64 5
  %275 = getelementptr inbounds nuw %struct.u128, ptr %274, i32 0, i32 1
  %276 = load i64, ptr %275, align 8, !tbaa !92
  %277 = xor i64 %272, %276
  %278 = load ptr, ptr %3, align 8, !tbaa !3
  %279 = getelementptr inbounds %struct.u128, ptr %278, i64 13
  %280 = getelementptr inbounds nuw %struct.u128, ptr %279, i32 0, i32 1
  store i64 %277, ptr %280, align 8, !tbaa !92
  %281 = getelementptr inbounds nuw %struct.u128, ptr %5, i32 0, i32 0
  %282 = load i64, ptr %281, align 8, !tbaa !90
  %283 = load ptr, ptr %3, align 8, !tbaa !3
  %284 = getelementptr inbounds %struct.u128, ptr %283, i64 6
  %285 = getelementptr inbounds nuw %struct.u128, ptr %284, i32 0, i32 0
  %286 = load i64, ptr %285, align 8, !tbaa !90
  %287 = xor i64 %282, %286
  %288 = load ptr, ptr %3, align 8, !tbaa !3
  %289 = getelementptr inbounds %struct.u128, ptr %288, i64 14
  %290 = getelementptr inbounds nuw %struct.u128, ptr %289, i32 0, i32 0
  store i64 %287, ptr %290, align 8, !tbaa !90
  %291 = getelementptr inbounds nuw %struct.u128, ptr %5, i32 0, i32 1
  %292 = load i64, ptr %291, align 8, !tbaa !92
  %293 = load ptr, ptr %3, align 8, !tbaa !3
  %294 = getelementptr inbounds %struct.u128, ptr %293, i64 6
  %295 = getelementptr inbounds nuw %struct.u128, ptr %294, i32 0, i32 1
  %296 = load i64, ptr %295, align 8, !tbaa !92
  %297 = xor i64 %292, %296
  %298 = load ptr, ptr %3, align 8, !tbaa !3
  %299 = getelementptr inbounds %struct.u128, ptr %298, i64 14
  %300 = getelementptr inbounds nuw %struct.u128, ptr %299, i32 0, i32 1
  store i64 %297, ptr %300, align 8, !tbaa !92
  %301 = getelementptr inbounds nuw %struct.u128, ptr %5, i32 0, i32 0
  %302 = load i64, ptr %301, align 8, !tbaa !90
  %303 = load ptr, ptr %3, align 8, !tbaa !3
  %304 = getelementptr inbounds %struct.u128, ptr %303, i64 7
  %305 = getelementptr inbounds nuw %struct.u128, ptr %304, i32 0, i32 0
  %306 = load i64, ptr %305, align 8, !tbaa !90
  %307 = xor i64 %302, %306
  %308 = load ptr, ptr %3, align 8, !tbaa !3
  %309 = getelementptr inbounds %struct.u128, ptr %308, i64 15
  %310 = getelementptr inbounds nuw %struct.u128, ptr %309, i32 0, i32 0
  store i64 %307, ptr %310, align 8, !tbaa !90
  %311 = getelementptr inbounds nuw %struct.u128, ptr %5, i32 0, i32 1
  %312 = load i64, ptr %311, align 8, !tbaa !92
  %313 = load ptr, ptr %3, align 8, !tbaa !3
  %314 = getelementptr inbounds %struct.u128, ptr %313, i64 7
  %315 = getelementptr inbounds nuw %struct.u128, ptr %314, i32 0, i32 1
  %316 = load i64, ptr %315, align 8, !tbaa !92
  %317 = xor i64 %312, %316
  %318 = load ptr, ptr %3, align 8, !tbaa !3
  %319 = getelementptr inbounds %struct.u128, ptr %318, i64 15
  %320 = getelementptr inbounds nuw %struct.u128, ptr %319, i32 0, i32 1
  store i64 %317, ptr %320, align 8, !tbaa !92
  call void @llvm.lifetime.end.p0(i64 16, ptr %5) #5
  ret void
}