; Function Attrs: mustprogress nofree norecurse nosync nounwind willreturn memory(argmem: readwrite) uwtable
define internal void @gcm_init_4bit(ptr noundef writeonly captures(none) initializes((0, 256)) %0, ptr noundef readonly captures(none) %1) #4 {
  tail call void @llvm.memset.p0.i64(ptr noundef nonnull align 8 dereferenceable(16) %0, i8 0, i64 16, i1 false)
  %3 = load i64, ptr %1, align 8, !tbaa !67
  %4 = getelementptr inbounds nuw i8, ptr %1, i64 8
  %5 = load i64, ptr %4, align 8, !tbaa !67
  %6 = getelementptr inbounds nuw i8, ptr %0, i64 128
  store i64 %3, ptr %6, align 8, !tbaa !67
  %.sroa.29.0..sroa_idx = getelementptr inbounds nuw i8, ptr %0, i64 136
  store i64 %5, ptr %.sroa.29.0..sroa_idx, align 8, !tbaa !67
  %7 = and i64 %5, 1
  %8 = icmp eq i64 %7, 0
  %9 = select i1 %8, i64 0, i64 -2233785415175766016
  %10 = tail call i64 @llvm.fshl.i64(i64 %3, i64 %5, i64 63)
  %11 = lshr i64 %3, 1
  %12 = xor i64 %9, %11
  %13 = getelementptr inbounds nuw i8, ptr %0, i64 64
  store i64 %12, ptr %13, align 8, !tbaa !67
  %.sroa.29.0..sroa_idx24 = getelementptr inbounds nuw i8, ptr %0, i64 72
  store i64 %10, ptr %.sroa.29.0..sroa_idx24, align 8, !tbaa !67
  %14 = and i64 %10, 1
  %15 = icmp eq i64 %14, 0
  %16 = select i1 %15, i64 0, i64 -2233785415175766016
  %17 = tail call i64 @llvm.fshl.i64(i64 %11, i64 %10, i64 63)
  %18 = lshr i64 %12, 1
  %19 = xor i64 %18, %16
  %20 = getelementptr inbounds nuw i8, ptr %0, i64 32
  store i64 %19, ptr %20, align 8, !tbaa !67
  %.sroa.29.0..sroa_idx26 = getelementptr inbounds nuw i8, ptr %0, i64 40
  store i64 %17, ptr %.sroa.29.0..sroa_idx26, align 8, !tbaa !67
  %21 = and i64 %17, 1
  %22 = icmp eq i64 %21, 0
  %23 = select i1 %22, i64 0, i64 -2233785415175766016
  %24 = tail call i64 @llvm.fshl.i64(i64 %18, i64 %17, i64 63)
  %25 = lshr i64 %19, 1
  %26 = xor i64 %25, %23
  %27 = getelementptr inbounds nuw i8, ptr %0, i64 16
  store i64 %26, ptr %27, align 8, !tbaa !67
  %.sroa.29.0..sroa_idx28 = getelementptr inbounds nuw i8, ptr %0, i64 24
  store i64 %24, ptr %.sroa.29.0..sroa_idx28, align 8, !tbaa !67
  %28 = xor i64 %26, %19
  %29 = getelementptr inbounds nuw i8, ptr %0, i64 48
  store i64 %28, ptr %29, align 8, !tbaa !69
  %30 = xor i64 %24, %17
  %31 = getelementptr inbounds nuw i8, ptr %0, i64 56
  store i64 %30, ptr %31, align 8, !tbaa !71
  %32 = xor i64 %26, %12
  %33 = getelementptr inbounds nuw i8, ptr %0, i64 80
  store i64 %32, ptr %33, align 8, !tbaa !69
  %34 = xor i64 %24, %10
  %35 = getelementptr inbounds nuw i8, ptr %0, i64 88
  store i64 %34, ptr %35, align 8, !tbaa !71
  %36 = xor i64 %19, %12
  %37 = getelementptr inbounds nuw i8, ptr %0, i64 96
  store i64 %36, ptr %37, align 8, !tbaa !69
  %38 = xor i64 %17, %10
  %39 = getelementptr inbounds nuw i8, ptr %0, i64 104
  store i64 %38, ptr %39, align 8, !tbaa !71
  %40 = xor i64 %28, %12
  %41 = getelementptr inbounds nuw i8, ptr %0, i64 112
  store i64 %40, ptr %41, align 8, !tbaa !69
  %42 = xor i64 %30, %10
  %43 = getelementptr inbounds nuw i8, ptr %0, i64 120
  store i64 %42, ptr %43, align 8, !tbaa !71
  %44 = xor i64 %26, %3
  %45 = getelementptr inbounds nuw i8, ptr %0, i64 144
  store i64 %44, ptr %45, align 8, !tbaa !69
  %46 = xor i64 %24, %5
  %47 = getelementptr inbounds nuw i8, ptr %0, i64 152
  store i64 %46, ptr %47, align 8, !tbaa !71
  %48 = xor i64 %19, %3
  %49 = getelementptr inbounds nuw i8, ptr %0, i64 160
  store i64 %48, ptr %49, align 8, !tbaa !69
  %50 = xor i64 %17, %5
  %51 = getelementptr inbounds nuw i8, ptr %0, i64 168
  store i64 %50, ptr %51, align 8, !tbaa !71
  %52 = xor i64 %28, %3
  %53 = getelementptr inbounds nuw i8, ptr %0, i64 176
  store i64 %52, ptr %53, align 8, !tbaa !69
  %54 = xor i64 %30, %5
  %55 = getelementptr inbounds nuw i8, ptr %0, i64 184
  store i64 %54, ptr %55, align 8, !tbaa !71
  %56 = xor i64 %12, %3
  %57 = getelementptr inbounds nuw i8, ptr %0, i64 192
  store i64 %56, ptr %57, align 8, !tbaa !69
  %58 = xor i64 %10, %5
  %59 = getelementptr inbounds nuw i8, ptr %0, i64 200
  store i64 %58, ptr %59, align 8, !tbaa !71
  %60 = xor i64 %32, %3
  %61 = getelementptr inbounds nuw i8, ptr %0, i64 208
  store i64 %60, ptr %61, align 8, !tbaa !69
  %62 = xor i64 %34, %5
  %63 = getelementptr inbounds nuw i8, ptr %0, i64 216
  store i64 %62, ptr %63, align 8, !tbaa !71
  %64 = xor i64 %36, %3
  %65 = getelementptr inbounds nuw i8, ptr %0, i64 224
  store i64 %64, ptr %65, align 8, !tbaa !69
  %66 = xor i64 %38, %5
  %67 = getelementptr inbounds nuw i8, ptr %0, i64 232
  store i64 %66, ptr %67, align 8, !tbaa !71
  %68 = xor i64 %40, %3
  %69 = getelementptr inbounds nuw i8, ptr %0, i64 240
  store i64 %68, ptr %69, align 8, !tbaa !69
  %70 = xor i64 %42, %5
  %71 = getelementptr inbounds nuw i8, ptr %0, i64 248
  store i64 %70, ptr %71, align 8, !tbaa !71
  ret void
}